; Function Attrs: mustprogress nofree norecurse nosync nounwind memory(argmem: readwrite, inaccessiblemem: write) uwtable
define dso_local noundef zeroext range(i16 1, 0) i16 @_ZN4llvm27getPointerAuthStableSipHashENS_9StringRefE(ptr %0, i64 %1) local_unnamed_addr #0 {
  %3 = alloca [8 x i8], align 8
  call void @_ZN4llvm17getSipHash_2_4_64ENS_8ArrayRefIhEERA16_KhRA8_h(ptr %0, i64 %1, ptr noundef nonnull align 1 dereferenceable(16) @_ZZN4llvm27getPointerAuthStableSipHashENS_9StringRefEE1K, ptr noundef nonnull align 1 dereferenceable(8) %3)
  call void @llvm.assume(i1 true) [ "align"(ptr %3, i64 1) ]
  %.0.copyload.i.i.i.i.i.i = load i64, ptr %3, align 8
  %4 = urem i64 %.0.copyload.i.i.i.i.i.i, 65535
  %5 = trunc nuw i64 %4 to i16
  %6 = add nuw i16 %5, 1
  ret i16 %6
}